target datalayout = "e-m:e-p270:32:32-p271:32:32-p272:64:64-i64:64-i128:128-f80:128-n8:16:32:64-S128"
target triple = "x86_64-pc-linux-gnu"

@je_opt_oversize_threshold = hidden global i64 8388608, align 8
@je_oversize_threshold = hidden global i64 8388608, align 8
@huge_arena_ind = internal global i32 0, align 4

; Function Attrs: nounwind uwtable
define hidden zeroext i1 @je_arena_init_huge() #0 {
  %1 = alloca i8, align 1
  call void @llvm.lifetime.start.p0(i64 1, ptr %1) #10
  %2 = load i64, ptr @je_opt_oversize_threshold, align 8, !tbaa !21
  %3 = icmp ugt i64 %2, 8070450532247928832
  br i1 %3, label %7, label %4

4:                                                ; preds = %0
  %5 = load i64, ptr @je_opt_oversize_threshold, align 8, !tbaa !21
  %6 = icmp ult i64 %5, 16384
  br i1 %6, label %7, label %8

7:                                                ; preds = %4, %0
  store i64 0, ptr @je_opt_oversize_threshold, align 8, !tbaa !21
  store i64 8070450532247932928, ptr @je_oversize_threshold, align 8, !tbaa !21
  store i8 0, ptr %1, align 1, !tbaa !23
  br label %11

8:                                                ; preds = %4
  %9 = call i32 @je_narenas_total_get()
  store i32 %9, ptr @huge_arena_ind, align 4, !tbaa !17
  %10 = load i64, ptr @je_opt_oversize_threshold, align 8, !tbaa !21
  store i64 %10, ptr @je_oversize_threshold, align 8, !tbaa !21
  store i8 1, ptr %1, align 1, !tbaa !23
  br label %11

11:                                               ; preds = %8, %7
  %12 = load i8, ptr %1, align 1, !tbaa !23, !range !25, !noundef !26
  %13 = trunc i8 %12 to i1
  call void @llvm.lifetime.end.p0(i64 1, ptr %1) #10
  ret i1 %13
}