; Function Attrs: nounwind uwtable
define hidden noundef zeroext i1 @je_arena_init_huge() local_unnamed_addr #0 {
  %1 = load i64, ptr @je_opt_oversize_threshold, align 8, !tbaa !11
  %2 = add i64 %1, -16384
  %or.cond = icmp ult i64 %2, 8070450532247912449
  br i1 %or.cond, label %4, label %3

3:                                                ; preds = %0
  store i64 0, ptr @je_opt_oversize_threshold, align 8, !tbaa !11
  br label %7

4:                                                ; preds = %0
  %5 = tail call i32 @je_narenas_total_get() #16
  store i32 %5, ptr @huge_arena_ind, align 4, !tbaa !4
  %6 = load i64, ptr @je_opt_oversize_threshold, align 8, !tbaa !11
  br label %7

7:                                                ; preds = %4, %3
  %storemerge = phi i64 [ %6, %4 ], [ 8070450532247932928, %3 ]
  store i64 %storemerge, ptr @je_oversize_threshold, align 8, !tbaa !11
  ret i1 %or.cond
}